target datalayout = "e-m:e-p270:32:32-p271:32:32-p272:64:64-i64:64-i128:128-f80:128-n8:16:32:64-S128"
target triple = "x86_64-pc-linux-gnu"

%struct.pmix_hash_table_t = type { %struct.pmix_object_t, ptr, ptr, i64, i64, i64, i32, i32, i32, i32, ptr }
%struct.pmix_object_t = type { %union.pthread_mutex_t, ptr, i32, %struct.pmix_tma }
%union.pthread_mutex_t = type { %struct.__pthread_mutex_s }
%struct.__pthread_mutex_s = type { i32, i32, i32, i32, i32, i16, i16, %struct.__pthread_internal_list }
%struct.__pthread_internal_list = type { ptr, ptr }
%struct.pmix_tma = type { ptr, ptr, ptr, ptr, ptr, ptr, ptr, ptr }
%struct.pmix_hash_element_t = type { i32, %union.anon, ptr, ptr }
%union.anon = type { %struct.anon }
%struct.anon = type { ptr, i64 }

; Function Attrs: nounwind uwtable
define internal i32 @pmix_hash_table_get_next_elt(ptr noundef %0, ptr noundef %1, ptr noundef %2) #0 {
  %4 = alloca i32, align 4
  %5 = alloca ptr, align 8
  %6 = alloca ptr, align 8
  %7 = alloca ptr, align 8
  %8 = alloca ptr, align 8
  %9 = alloca i64, align 8
  %10 = alloca i64, align 8
  %11 = alloca ptr, align 8
  %12 = alloca i32, align 4
  store ptr %0, ptr %5, align 8, !tbaa !3
  store ptr %1, ptr %6, align 8, !tbaa !34
  store ptr %2, ptr %7, align 8, !tbaa !53
  call void @llvm.lifetime.start.p0(i64 8, ptr %8) #9
  %13 = load ptr, ptr %5, align 8, !tbaa !3
  %14 = getelementptr inbounds nuw %struct.pmix_hash_table_t, ptr %13, i32 0, i32 2
  %15 = load ptr, ptr %14, align 8, !tbaa !8
  store ptr %15, ptr %8, align 8, !tbaa !34
  call void @llvm.lifetime.start.p0(i64 8, ptr %9) #9
  call void @llvm.lifetime.start.p0(i64 8, ptr %10) #9
  %16 = load ptr, ptr %5, align 8, !tbaa !3
  %17 = getelementptr inbounds nuw %struct.pmix_hash_table_t, ptr %16, i32 0, i32 3
  %18 = load i64, ptr %17, align 8, !tbaa !20
  store i64 %18, ptr %10, align 8, !tbaa !28
  %19 = load ptr, ptr %6, align 8, !tbaa !34
  %20 = icmp eq ptr null, %19
  br i1 %20, label %21, label %22

21:                                               ; preds = %3
  br label %30

22:                                               ; preds = %3
  %23 = load ptr, ptr %6, align 8, !tbaa !34
  %24 = load ptr, ptr %8, align 8, !tbaa !34
  %25 = ptrtoint ptr %23 to i64
  %26 = ptrtoint ptr %24 to i64
  %27 = sub i64 %25, %26
  %28 = sdiv exact i64 %27, 40
  %29 = add nsw i64 %28, 1
  br label %30

30:                                               ; preds = %22, %21
  %31 = phi i64 [ 0, %21 ], [ %29, %22 ]
  store i64 %31, ptr %9, align 8, !tbaa !28
  br label %32

32:                                               ; preds = %51, %30
  %33 = load i64, ptr %9, align 8, !tbaa !28
  %34 = load i64, ptr %10, align 8, !tbaa !28
  %35 = icmp ult i64 %33, %34
  br i1 %35, label %36, label %54

36:                                               ; preds = %32
  call void @llvm.lifetime.start.p0(i64 8, ptr %11) #9
  %37 = load ptr, ptr %8, align 8, !tbaa !34
  %38 = load i64, ptr %9, align 8, !tbaa !28
  %39 = getelementptr inbounds nuw %struct.pmix_hash_element_t, ptr %37, i64 %38
  store ptr %39, ptr %11, align 8, !tbaa !34
  %40 = load ptr, ptr %11, align 8, !tbaa !34
  %41 = getelementptr inbounds nuw %struct.pmix_hash_element_t, ptr %40, i32 0, i32 0
  %42 = load i32, ptr %41, align 8, !tbaa !35
  %43 = icmp ne i32 %42, 0
  br i1 %43, label %44, label %47

44:                                               ; preds = %36
  %45 = load ptr, ptr %11, align 8, !tbaa !34
  %46 = load ptr, ptr %7, align 8, !tbaa !53
  store ptr %45, ptr %46, align 8, !tbaa !34
  store i32 0, ptr %4, align 4
  store i32 1, ptr %12, align 4
  br label %48

47:                                               ; preds = %36
  store i32 0, ptr %12, align 4
  br label %48

48:                                               ; preds = %47, %44
  call void @llvm.lifetime.end.p0(i64 8, ptr %11) #9
  %49 = load i32, ptr %12, align 4
  switch i32 %49, label %55 [
    i32 0, label %50
  ]

50:                                               ; preds = %48
  br label %51

51:                                               ; preds = %50
  %52 = load i64, ptr %9, align 8, !tbaa !28
  %53 = add i64 %52, 1
  store i64 %53, ptr %9, align 8, !tbaa !28
  br label %32, !llvm.loop !55

54:                                               ; preds = %32
  store i32 -1, ptr %4, align 4
  store i32 1, ptr %12, align 4
  br label %55

55:                                               ; preds = %54, %48
  call void @llvm.lifetime.end.p0(i64 8, ptr %10) #9
  call void @llvm.lifetime.end.p0(i64 8, ptr %9) #9
  call void @llvm.lifetime.end.p0(i64 8, ptr %8) #9
  %56 = load i32, ptr %4, align 4
  ret i32 %56
}

; Function Attrs: nounwind uwtable
define i32 @pmix_hash_table_get_next_key_uint32(ptr noundef %0, ptr noundef %1, ptr noundef %2, ptr noundef %3, ptr noundef %4) #0 {
  %6 = alloca i32, align 4
  %7 = alloca ptr, align 8
  %8 = alloca ptr, align 8
  %9 = alloca ptr, align 8
  %10 = alloca ptr, align 8
  %11 = alloca ptr, align 8
  %12 = alloca ptr, align 8
  %13 = alloca i32, align 4
  store ptr %0, ptr %7, align 8, !tbaa !3
  store ptr %1, ptr %8, align 8, !tbaa !51
  store ptr %2, ptr %9, align 8, !tbaa !42
  store ptr %3, ptr %10, align 8, !tbaa !42
  store ptr %4, ptr %11, align 8, !tbaa !42
  call void @llvm.lifetime.start.p0(i64 8, ptr %12) #9
  %14 = load ptr, ptr %7, align 8, !tbaa !3
  %15 = load ptr, ptr %10, align 8, !tbaa !42
  %16 = call i32 @pmix_hash_table_get_next_elt(ptr noundef %14, ptr noundef %15, ptr noundef %12)
  %17 = icmp eq i32 0, %16
  br i1 %17, label %18, label %29

18:                                               ; preds = %5
  %19 = load ptr, ptr %12, align 8, !tbaa !34
  %20 = getelementptr inbounds nuw %struct.pmix_hash_element_t, ptr %19, i32 0, i32 1
  %21 = load i32, ptr %20, align 8, !tbaa !43
  %22 = load ptr, ptr %8, align 8, !tbaa !51
  store i32 %21, ptr %22, align 4, !tbaa !29
  %23 = load ptr, ptr %12, align 8, !tbaa !34
  %24 = getelementptr inbounds nuw %struct.pmix_hash_element_t, ptr %23, i32 0, i32 3
  %25 = load ptr, ptr %24, align 8, !tbaa !39
  %26 = load ptr, ptr %9, align 8, !tbaa !42
  store ptr %25, ptr %26, align 8, !tbaa !42
  %27 = load ptr, ptr %12, align 8, !tbaa !34
  %28 = load ptr, ptr %11, align 8, !tbaa !42
  store ptr %27, ptr %28, align 8, !tbaa !42
  store i32 0, ptr %6, align 4
  store i32 1, ptr %13, align 4
  br label %30

29:                                               ; preds = %5
  store i32 -1, ptr %6, align 4
  store i32 1, ptr %13, align 4
  br label %30

30:                                               ; preds = %29, %18
  call void @llvm.lifetime.end.p0(i64 8, ptr %12) #9
  %31 = load i32, ptr %6, align 4
  ret i32 %31
}

; Function Attrs: nounwind uwtable
define i32 @pmix_hash_table_get_first_key_uint32(ptr noundef %0, ptr noundef %1, ptr noundef %2, ptr noundef %3) #0 {
  %5 = alloca ptr, align 8
  %6 = alloca ptr, align 8
  %7 = alloca ptr, align 8
  %8 = alloca ptr, align 8
  store ptr %0, ptr %5, align 8, !tbaa !3
  store ptr %1, ptr %6, align 8, !tbaa !51
  store ptr %2, ptr %7, align 8, !tbaa !42
  store ptr %3, ptr %8, align 8, !tbaa !42
  %9 = load ptr, ptr %5, align 8, !tbaa !3
  %10 = load ptr, ptr %6, align 8, !tbaa !51
  %11 = load ptr, ptr %7, align 8, !tbaa !42
  %12 = load ptr, ptr %8, align 8, !tbaa !42
  %13 = call i32 @pmix_hash_table_get_next_key_uint32(ptr noundef %9, ptr noundef %10, ptr noundef %11, ptr noundef null, ptr noundef %12)
  ret i32 %13
}