; Function Attrs: nofree norecurse nosync nounwind memory(read, argmem: readwrite, inaccessiblemem: none) uwtable
define range(i32 -1, 1) i32 @pmix_hash_table_get_first_key_uint32(ptr noundef readonly captures(none) %0, ptr noundef writeonly captures(none) %1, ptr noundef writeonly captures(none) %2, ptr noundef writeonly captures(none) %3) local_unnamed_addr #2 {
  %5 = getelementptr i8, ptr %0, i64 128
  %.val.i = load ptr, ptr %5, align 8, !tbaa !17
  %6 = getelementptr i8, ptr %0, i64 136
  %.val5.i = load i64, ptr %6, align 8, !tbaa !11
  %.not = icmp eq i64 %.val5.i, 0
  br i1 %.not, label %pmix_hash_table_get_next_key_uint32.exit, label %.critedge.i.i

7:                                                ; preds = %.critedge.i.i
  %8 = add nuw i64 %.0151.i.i, 1
  %exitcond.not.i.i = icmp eq i64 %8, %.val5.i
  br i1 %exitcond.not.i.i, label %pmix_hash_table_get_next_key_uint32.exit, label %.critedge.i.i, !llvm.loop !45

.critedge.i.i:                                    ; preds = %4, %7
  %.0151.i.i = phi i64 [ %8, %7 ], [ 0, %4 ]
  %9 = getelementptr inbounds nuw %struct.pmix_hash_element_t, ptr %.val.i, i64 %.0151.i.i
  %10 = load i32, ptr %9, align 8, !tbaa !18
  %.not.i.i = icmp eq i32 %10, 0
  br i1 %.not.i.i, label %7, label %pmix_hash_table_get_next_elt.exit.i

pmix_hash_table_get_next_elt.exit.i:              ; preds = %.critedge.i.i
  %11 = getelementptr inbounds nuw i8, ptr %9, i64 8
  %12 = load i32, ptr %11, align 8, !tbaa !36
  store i32 %12, ptr %1, align 4, !tbaa !41
  %13 = getelementptr inbounds nuw i8, ptr %9, i64 32
  %14 = load ptr, ptr %13, align 8, !tbaa !24
  store ptr %14, ptr %2, align 8, !tbaa !37
  store ptr %9, ptr %3, align 8, !tbaa !37
  br label %pmix_hash_table_get_next_key_uint32.exit

pmix_hash_table_get_next_key_uint32.exit:         ; preds = %7, %4, %pmix_hash_table_get_next_elt.exit.i
  %.0.i = phi i32 [ 0, %pmix_hash_table_get_next_elt.exit.i ], [ -1, %4 ], [ -1, %7 ]
  ret i32 %.0.i
}